target datalayout = "e-m:e-p270:32:32-p271:32:32-p272:64:64-i64:64-i128:128-f80:128-n8:16:32:64-S128"
target triple = "x86_64-pc-linux-gnu"

; Function Attrs: mustprogress uwtable
define linkonce_odr hidden noundef nonnull align 8 dereferenceable(64) ptr @_ZN4LIEF4Hash7processINS_5MachO18RELOCATION_ORIGINSEvEERS0_T_(ptr noundef nonnull align 8 dereferenceable(64) %0, i64 noundef %1) #3 comdat align 2 {
  %3 = alloca ptr, align 8
  %4 = alloca i64, align 8
  store ptr %0, ptr %3, align 8
  store i64 %1, ptr %4, align 8
  %5 = load ptr, ptr %3, align 8
  %6 = load i64, ptr %4, align 8
  %7 = load ptr, ptr %5, align 8
  %8 = getelementptr inbounds ptr, ptr %7, i64 166
  %9 = load ptr, ptr %8, align 8
  %10 = call noundef nonnull align 8 dereferenceable(64) ptr %9(ptr noundef nonnull align 8 dereferenceable(64) %5, i64 noundef %6)
  ret ptr %10
}

; Function Attrs: mustprogress uwtable
define void @_ZN4LIEF5MachO4Hash5visitERKNS0_10RelocationE(ptr noundef nonnull align 8 dereferenceable(64) %0, ptr noundef nonnull align 8 dereferenceable(56) %1) unnamed_addr #3 align 2 {
  %3 = alloca ptr, align 8
  %4 = alloca ptr, align 8
  store ptr %0, ptr %3, align 8
  store ptr %1, ptr %4, align 8
  %5 = load ptr, ptr %3, align 8
  %6 = load ptr, ptr %4, align 8
  %7 = load ptr, ptr %6, align 8
  %8 = getelementptr inbounds ptr, ptr %7, i64 6
  %9 = load ptr, ptr %8, align 8
  %10 = call noundef i64 %9(ptr noundef nonnull align 8 dereferenceable(17) %6)
  %11 = load ptr, ptr %5, align 8
  %12 = getelementptr inbounds ptr, ptr %11, i64 166
  %13 = load ptr, ptr %12, align 8
  %14 = call noundef nonnull align 8 dereferenceable(64) ptr %13(ptr noundef nonnull align 8 dereferenceable(64) %5, i64 noundef %10)
  %15 = load ptr, ptr %4, align 8
  %16 = load ptr, ptr %15, align 8
  %17 = getelementptr inbounds ptr, ptr %16, i64 5
  %18 = load ptr, ptr %17, align 8
  %19 = call noundef i64 %18(ptr noundef nonnull align 8 dereferenceable(17) %15)
  %20 = load ptr, ptr %5, align 8
  %21 = getelementptr inbounds ptr, ptr %20, i64 166
  %22 = load ptr, ptr %21, align 8
  %23 = call noundef nonnull align 8 dereferenceable(64) ptr %22(ptr noundef nonnull align 8 dereferenceable(64) %5, i64 noundef %19)
  %24 = load ptr, ptr %4, align 8
  %25 = load ptr, ptr %24, align 8
  %26 = getelementptr inbounds ptr, ptr %25, i64 14
  %27 = load ptr, ptr %26, align 8
  %28 = call noundef zeroext i1 %27(ptr noundef nonnull align 8 dereferenceable(56) %24)
  %29 = zext i1 %28 to i64
  %30 = load ptr, ptr %5, align 8
  %31 = getelementptr inbounds ptr, ptr %30, i64 166
  %32 = load ptr, ptr %31, align 8
  %33 = call noundef nonnull align 8 dereferenceable(64) ptr %32(ptr noundef nonnull align 8 dereferenceable(64) %5, i64 noundef %29)
  %34 = load ptr, ptr %4, align 8
  %35 = load ptr, ptr %34, align 8
  %36 = getelementptr inbounds ptr, ptr %35, i64 15
  %37 = load ptr, ptr %36, align 8
  %38 = call noundef zeroext i8 %37(ptr noundef nonnull align 8 dereferenceable(56) %34)
  %39 = zext i8 %38 to i64
  %40 = load ptr, ptr %5, align 8
  %41 = getelementptr inbounds ptr, ptr %40, i64 166
  %42 = load ptr, ptr %41, align 8
  %43 = call noundef nonnull align 8 dereferenceable(64) ptr %42(ptr noundef nonnull align 8 dereferenceable(64) %5, i64 noundef %39)
  %44 = load ptr, ptr %4, align 8
  %45 = load ptr, ptr %44, align 8
  %46 = getelementptr inbounds ptr, ptr %45, i64 16
  %47 = load ptr, ptr %46, align 8
  %48 = call noundef i64 %47(ptr noundef nonnull align 8 dereferenceable(56) %44)
  %49 = call noundef nonnull align 8 dereferenceable(64) ptr @_ZN4LIEF4Hash7processINS_5MachO18RELOCATION_ORIGINSEvEERS0_T_(ptr noundef nonnull align 8 dereferenceable(64) %5, i64 noundef %48)
  %50 = load ptr, ptr %4, align 8
  %51 = call noundef zeroext i1 @_ZNK4LIEF5MachO10Relocation10has_symbolEv(ptr noundef nonnull align 8 dereferenceable(56) %50)
  br i1 %51, label %52, label %63

52:                                               ; preds = %2
  %53 = load ptr, ptr %4, align 8
  %54 = call noundef ptr @_ZNK4LIEF5MachO10Relocation6symbolEv(ptr noundef nonnull align 8 dereferenceable(56) %53)
  %55 = load ptr, ptr %54, align 8
  %56 = getelementptr inbounds ptr, ptr %55, i64 5
  %57 = load ptr, ptr %56, align 8
  %58 = call noundef nonnull align 8 dereferenceable(32) ptr %57(ptr noundef nonnull align 8 dereferenceable(56) %54)
  %59 = load ptr, ptr %5, align 8
  %60 = getelementptr inbounds ptr, ptr %59, i64 167
  %61 = load ptr, ptr %60, align 8
  %62 = call noundef nonnull align 8 dereferenceable(64) ptr %61(ptr noundef nonnull align 8 dereferenceable(64) %5, ptr noundef nonnull align 8 dereferenceable(32) %58)
  br label %63

63:                                               ; preds = %52, %2
  ret void
}