; Function Attrs: mustprogress uwtable
define void @_ZN4LIEF5MachO4Hash5visitERKNS0_10RelocationE(ptr noundef nonnull align 8 dereferenceable(64) %0, ptr noundef nonnull align 8 dereferenceable(56) %1) unnamed_addr #3 align 2 {
  %3 = load ptr, ptr %1, align 8
  %4 = getelementptr inbounds i8, ptr %3, i64 48
  %5 = load ptr, ptr %4, align 8
  %6 = tail call noundef i64 %5(ptr noundef nonnull align 8 dereferenceable(17) %1)
  %7 = load ptr, ptr %0, align 8
  %8 = getelementptr inbounds i8, ptr %7, i64 1328
  %9 = load ptr, ptr %8, align 8
  %10 = tail call noundef nonnull align 8 dereferenceable(64) ptr %9(ptr noundef nonnull align 8 dereferenceable(64) %0, i64 noundef %6)
  %11 = load ptr, ptr %1, align 8
  %12 = getelementptr inbounds i8, ptr %11, i64 40
  %13 = load ptr, ptr %12, align 8
  %14 = tail call noundef i64 %13(ptr noundef nonnull align 8 dereferenceable(17) %1)
  %15 = load ptr, ptr %0, align 8
  %16 = getelementptr inbounds i8, ptr %15, i64 1328
  %17 = load ptr, ptr %16, align 8
  %18 = tail call noundef nonnull align 8 dereferenceable(64) ptr %17(ptr noundef nonnull align 8 dereferenceable(64) %0, i64 noundef %14)
  %19 = load ptr, ptr %1, align 8
  %20 = getelementptr inbounds i8, ptr %19, i64 112
  %21 = load ptr, ptr %20, align 8
  %22 = tail call noundef zeroext i1 %21(ptr noundef nonnull align 8 dereferenceable(56) %1)
  %23 = zext i1 %22 to i64
  %24 = load ptr, ptr %0, align 8
  %25 = getelementptr inbounds i8, ptr %24, i64 1328
  %26 = load ptr, ptr %25, align 8
  %27 = tail call noundef nonnull align 8 dereferenceable(64) ptr %26(ptr noundef nonnull align 8 dereferenceable(64) %0, i64 noundef %23)
  %28 = load ptr, ptr %1, align 8
  %29 = getelementptr inbounds i8, ptr %28, i64 120
  %30 = load ptr, ptr %29, align 8
  %31 = tail call noundef zeroext i8 %30(ptr noundef nonnull align 8 dereferenceable(56) %1)
  %32 = zext i8 %31 to i64
  %33 = load ptr, ptr %0, align 8
  %34 = getelementptr inbounds i8, ptr %33, i64 1328
  %35 = load ptr, ptr %34, align 8
  %36 = tail call noundef nonnull align 8 dereferenceable(64) ptr %35(ptr noundef nonnull align 8 dereferenceable(64) %0, i64 noundef %32)
  %37 = load ptr, ptr %1, align 8
  %38 = getelementptr inbounds i8, ptr %37, i64 128
  %39 = load ptr, ptr %38, align 8
  %40 = tail call noundef i64 %39(ptr noundef nonnull align 8 dereferenceable(56) %1)
  %41 = load ptr, ptr %0, align 8
  %42 = getelementptr inbounds i8, ptr %41, i64 1328
  %43 = load ptr, ptr %42, align 8
  %44 = tail call noundef nonnull align 8 dereferenceable(64) ptr %43(ptr noundef nonnull align 8 dereferenceable(64) %0, i64 noundef %40)
  %45 = tail call noundef zeroext i1 @_ZNK4LIEF5MachO10Relocation10has_symbolEv(ptr noundef nonnull align 8 dereferenceable(56) %1)
  br i1 %45, label %46, label %56

46:                                               ; preds = %2
  %47 = tail call noundef ptr @_ZNK4LIEF5MachO10Relocation6symbolEv(ptr noundef nonnull align 8 dereferenceable(56) %1)
  %48 = load ptr, ptr %47, align 8
  %49 = getelementptr inbounds i8, ptr %48, i64 40
  %50 = load ptr, ptr %49, align 8
  %51 = tail call noundef nonnull align 8 dereferenceable(32) ptr %50(ptr noundef nonnull align 8 dereferenceable(56) %47)
  %52 = load ptr, ptr %0, align 8
  %53 = getelementptr inbounds i8, ptr %52, i64 1336
  %54 = load ptr, ptr %53, align 8
  %55 = tail call noundef nonnull align 8 dereferenceable(64) ptr %54(ptr noundef nonnull align 8 dereferenceable(64) %0, ptr noundef nonnull align 8 dereferenceable(32) %51)
  br label %56

56:                                               ; preds = %46, %2
  ret void
}